; ModuleID = '35/903.c'
source_filename = "35/903.c"
target datalayout = "e-m:e-p270:32:32-p271:32:32-p272:64:64-i64:64-f80:128-n8:16:32:64-S128"
target triple = "x86_64-pc-linux-gnu"

@.str = private unnamed_addr constant [6 x i8] c"%d,%d\00", align 1
@.str.1 = private unnamed_addr constant [3 x i8] c"%d\00", align 1
@.str.2 = private unnamed_addr constant [6 x i8] c"%d+%d\00", align 1
@.str.3 = private unnamed_addr constant [3 x i8] c"No\00", align 1

; Function Attrs: noinline nounwind uwtable
define dso_local i32 @main() #0 {
  %1 = alloca i32, align 4
  %2 = alloca [8 x [8 x i32]], align 16
  %3 = alloca [8 x i32], align 16
  %4 = alloca [8 x i32], align 16
  %5 = alloca [8 x i32], align 16
  %6 = alloca [8 x i32], align 16
  %7 = alloca i32, align 4
  %8 = alloca i32, align 4
  %9 = alloca i32, align 4
  %10 = alloca i32, align 4
  %11 = alloca i32, align 4
  store i32 0, i32* %1, align 4
  %12 = bitcast [8 x i32]* %5 to i8*
  call void @llvm.memset.p0i8.i64(i8* align 16 %12, i8 0, i64 32, i1 false)
  %13 = bitcast [8 x i32]* %6 to i8*
  call void @llvm.memset.p0i8.i64(i8* align 16 %13, i8 0, i64 32, i1 false)
  %14 = call i32 (i8*, ...) @__isoc99_scanf(i8* getelementptr inbounds ([6 x i8], [6 x i8]* @.str, i64 0, i64 0), i32* %7, i32* %8)
  store i32 0, i32* %9, align 4
  br label %15

15:                                               ; preds = %36, %0
  %16 = load i32, i32* %9, align 4
  %17 = load i32, i32* %7, align 4
  %18 = icmp slt i32 %16, %17
  br i1 %18, label %19, label %39

19:                                               ; preds = %15
  store i32 0, i32* %10, align 4
  br label %20

20:                                               ; preds = %32, %19
  %21 = load i32, i32* %10, align 4
  %22 = load i32, i32* %8, align 4
  %23 = icmp slt i32 %21, %22
  br i1 %23, label %24, label %35

24:                                               ; preds = %20
  %25 = load i32, i32* %9, align 4
  %26 = sext i32 %25 to i64
  %27 = getelementptr inbounds [8 x [8 x i32]], [8 x [8 x i32]]* %2, i64 0, i64 %26
  %28 = load i32, i32* %10, align 4
  %29 = sext i32 %28 to i64
  %30 = getelementptr inbounds [8 x i32], [8 x i32]* %27, i64 0, i64 %29
  %31 = call i32 (i8*, ...) @__isoc99_scanf(i8* getelementptr inbounds ([3 x i8], [3 x i8]* @.str.1, i64 0, i64 0), i32* %30)
  br label %32

32:                                               ; preds = %24
  %33 = load i32, i32* %10, align 4
  %34 = add nsw i32 %33, 1
  store i32 %34, i32* %10, align 4
  br label %20

35:                                               ; preds = %20
  br label %36

36:                                               ; preds = %35
  %37 = load i32, i32* %9, align 4
  %38 = add nsw i32 %37, 1
  store i32 %38, i32* %9, align 4
  br label %15

39:                                               ; preds = %15
  store i32 0, i32* %9, align 4
  br label %40

40:                                               ; preds = %90, %39
  %41 = load i32, i32* %9, align 4
  %42 = load i32, i32* %7, align 4
  %43 = icmp slt i32 %41, %42
  br i1 %43, label %44, label %93

44:                                               ; preds = %40
  store i32 0, i32* %10, align 4
  br label %45

45:                                               ; preds = %86, %44
  %46 = load i32, i32* %10, align 4
  %47 = load i32, i32* %8, align 4
  %48 = icmp slt i32 %46, %47
  br i1 %48, label %49, label %89

49:                                               ; preds = %45
  %50 = load i32, i32* %9, align 4
  %51 = sext i32 %50 to i64
  %52 = getelementptr inbounds [8 x [8 x i32]], [8 x [8 x i32]]* %2, i64 0, i64 %51
  %53 = getelementptr inbounds [8 x i32], [8 x i32]* %52, i64 0, i64 0
  %54 = load i32, i32* %53, align 16
  %55 = load i32, i32* %9, align 4
  %56 = sext i32 %55 to i64
  %57 = getelementptr inbounds [8 x i32], [8 x i32]* %3, i64 0, i64 %56
  store i32 %54, i32* %57, align 4
  %58 = load i32, i32* %9, align 4
  %59 = sext i32 %58 to i64
  %60 = getelementptr inbounds [8 x [8 x i32]], [8 x [8 x i32]]* %2, i64 0, i64 %59
  %61 = load i32, i32* %10, align 4
  %62 = sext i32 %61 to i64
  %63 = getelementptr inbounds [8 x i32], [8 x i32]* %60, i64 0, i64 %62
  %64 = load i32, i32* %63, align 4
  %65 = load i32, i32* %9, align 4
  %66 = sext i32 %65 to i64
  %67 = getelementptr inbounds [8 x i32], [8 x i32]* %3, i64 0, i64 %66
  %68 = load i32, i32* %67, align 4
  %69 = icmp sgt i32 %64, %68
  br i1 %69, label %70, label %85

70:                                               ; preds = %49
  %71 = load i32, i32* %9, align 4
  %72 = sext i32 %71 to i64
  %73 = getelementptr inbounds [8 x [8 x i32]], [8 x [8 x i32]]* %2, i64 0, i64 %72
  %74 = load i32, i32* %10, align 4
  %75 = sext i32 %74 to i64
  %76 = getelementptr inbounds [8 x i32], [8 x i32]* %73, i64 0, i64 %75
  %77 = load i32, i32* %76, align 4
  %78 = load i32, i32* %9, align 4
  %79 = sext i32 %78 to i64
  %80 = getelementptr inbounds [8 x i32], [8 x i32]* %3, i64 0, i64 %79
  store i32 %77, i32* %80, align 4
  %81 = load i32, i32* %10, align 4
  %82 = load i32, i32* %9, align 4
  %83 = sext i32 %82 to i64
  %84 = getelementptr inbounds [8 x i32], [8 x i32]* %5, i64 0, i64 %83
  store i32 %81, i32* %84, align 4
  br label %85

85:                                               ; preds = %70, %49
  br label %86

86:                                               ; preds = %85
  %87 = load i32, i32* %10, align 4
  %88 = add nsw i32 %87, 1
  store i32 %88, i32* %10, align 4
  br label %45

89:                                               ; preds = %45
  br label %90

90:                                               ; preds = %89
  %91 = load i32, i32* %9, align 4
  %92 = add nsw i32 %91, 1
  store i32 %92, i32* %9, align 4
  br label %40

93:                                               ; preds = %40
  store i32 0, i32* %10, align 4
  br label %94

94:                                               ; preds = %144, %93
  %95 = load i32, i32* %10, align 4
  %96 = load i32, i32* %8, align 4
  %97 = icmp slt i32 %95, %96
  br i1 %97, label %98, label %147

98:                                               ; preds = %94
  store i32 0, i32* %9, align 4
  br label %99

99:                                               ; preds = %140, %98
  %100 = load i32, i32* %9, align 4
  %101 = load i32, i32* %7, align 4
  %102 = icmp slt i32 %100, %101
  br i1 %102, label %103, label %143

103:                                              ; preds = %99
  %104 = getelementptr inbounds [8 x [8 x i32]], [8 x [8 x i32]]* %2, i64 0, i64 0
  %105 = load i32, i32* %10, align 4
  %106 = sext i32 %105 to i64
  %107 = getelementptr inbounds [8 x i32], [8 x i32]* %104, i64 0, i64 %106
  %108 = load i32, i32* %107, align 4
  %109 = load i32, i32* %10, align 4
  %110 = sext i32 %109 to i64
  %111 = getelementptr inbounds [8 x i32], [8 x i32]* %4, i64 0, i64 %110
  store i32 %108, i32* %111, align 4
  %112 = load i32, i32* %9, align 4
  %113 = sext i32 %112 to i64
  %114 = getelementptr inbounds [8 x [8 x i32]], [8 x [8 x i32]]* %2, i64 0, i64 %113
  %115 = load i32, i32* %10, align 4
  %116 = sext i32 %115 to i64
  %117 = getelementptr inbounds [8 x i32], [8 x i32]* %114, i64 0, i64 %116
  %118 = load i32, i32* %117, align 4
  %119 = load i32, i32* %10, align 4
  %120 = sext i32 %119 to i64
  %121 = getelementptr inbounds [8 x i32], [8 x i32]* %4, i64 0, i64 %120
  %122 = load i32, i32* %121, align 4
  %123 = icmp slt i32 %118, %122
  br i1 %123, label %124, label %139

124:                                              ; preds = %103
  %125 = load i32, i32* %9, align 4
  %126 = sext i32 %125 to i64
  %127 = getelementptr inbounds [8 x [8 x i32]], [8 x [8 x i32]]* %2, i64 0, i64 %126
  %128 = load i32, i32* %10, align 4
  %129 = sext i32 %128 to i64
  %130 = getelementptr inbounds [8 x i32], [8 x i32]* %127, i64 0, i64 %129
  %131 = load i32, i32* %130, align 4
  %132 = load i32, i32* %10, align 4
  %133 = sext i32 %132 to i64
  %134 = getelementptr inbounds [8 x i32], [8 x i32]* %4, i64 0, i64 %133
  store i32 %131, i32* %134, align 4
  %135 = load i32, i32* %9, align 4
  %136 = load i32, i32* %10, align 4
  %137 = sext i32 %136 to i64
  %138 = getelementptr inbounds [8 x i32], [8 x i32]* %6, i64 0, i64 %137
  store i32 %135, i32* %138, align 4
  br label %139

139:                                              ; preds = %124, %103
  br label %140

140:                                              ; preds = %139
  %141 = load i32, i32* %9, align 4
  %142 = add nsw i32 %141, 1
  store i32 %142, i32* %9, align 4
  br label %99

143:                                              ; preds = %99
  br label %144

144:                                              ; preds = %143
  %145 = load i32, i32* %10, align 4
  %146 = add nsw i32 %145, 1
  store i32 %146, i32* %10, align 4
  br label %94

147:                                              ; preds = %94
  store i32 0, i32* %9, align 4
  store i32 0, i32* %11, align 4
  br label %148

148:                                              ; preds = %192, %147
  %149 = load i32, i32* %9, align 4
  %150 = load i32, i32* %7, align 4
  %151 = icmp slt i32 %149, %150
  br i1 %151, label %152, label %195

152:                                              ; preds = %148
  store i32 0, i32* %10, align 4
  br label %153

153:                                              ; preds = %188, %152
  %154 = load i32, i32* %10, align 4
  %155 = load i32, i32* %8, align 4
  %156 = icmp slt i32 %154, %155
  br i1 %156, label %157, label %191

157:                                              ; preds = %153
  %158 = load i32, i32* %10, align 4
  %159 = sext i32 %158 to i64
  %160 = getelementptr inbounds [8 x i32], [8 x i32]* %4, i64 0, i64 %159
  %161 = load i32, i32* %160, align 4
  %162 = icmp ne i32 %161, 0
  br i1 %162, label %163, label %177

163:                                              ; preds = %157
  %164 = load i32, i32* %10, align 4
  %165 = sext i32 %164 to i64
  %166 = getelementptr inbounds [8 x i32], [8 x i32]* %6, i64 0, i64 %165
  %167 = load i32, i32* %166, align 4
  %168 = load i32, i32* %9, align 4
  %169 = icmp eq i32 %167, %168
  br i1 %169, label %170, label %177

170:                                              ; preds = %163
  %171 = load i32, i32* %9, align 4
  %172 = sext i32 %171 to i64
  %173 = getelementptr inbounds [8 x i32], [8 x i32]* %5, i64 0, i64 %172
  %174 = load i32, i32* %173, align 4
  %175 = load i32, i32* %10, align 4
  %176 = icmp eq i32 %174, %175
  br label %177

177:                                              ; preds = %170, %163, %157
  %178 = phi i1 [ false, %163 ], [ false, %157 ], [ %176, %170 ]
  %179 = zext i1 %178 to i32
  %180 = load i32, i32* %9, align 4
  %181 = sext i32 %180 to i64
  %182 = getelementptr inbounds [8 x i32], [8 x i32]* %3, i64 0, i64 %181
  store i32 %179, i32* %182, align 4
  br i1 %178, label %183, label %187

183:                                              ; preds = %177
  store i32 1, i32* %11, align 4
  %184 = load i32, i32* %9, align 4
  %185 = load i32, i32* %10, align 4
  %186 = call i32 (i8*, ...) @printf(i8* getelementptr inbounds ([6 x i8], [6 x i8]* @.str.2, i64 0, i64 0), i32 %184, i32 %185)
  br label %191

187:                                              ; preds = %177
  br label %188

188:                                              ; preds = %187
  %189 = load i32, i32* %10, align 4
  %190 = add nsw i32 %189, 1
  store i32 %190, i32* %10, align 4
  br label %153

191:                                              ; preds = %183, %153
  br label %192

192:                                              ; preds = %191
  %193 = load i32, i32* %9, align 4
  %194 = add nsw i32 %193, 1
  store i32 %194, i32* %9, align 4
  br label %148

195:                                              ; preds = %148
  %196 = load i32, i32* %11, align 4
  %197 = icmp eq i32 %196, 0
  br i1 %197, label %198, label %200

198:                                              ; preds = %195
  %199 = call i32 (i8*, ...) @printf(i8* getelementptr inbounds ([3 x i8], [3 x i8]* @.str.3, i64 0, i64 0))
  br label %200

200:                                              ; preds = %198, %195
  ret i32 0
}

; Function Attrs: argmemonly nounwind willreturn
declare void @llvm.memset.p0i8.i64(i8* nocapture writeonly, i8, i64, i1 immarg) #1

declare dso_local i32 @__isoc99_scanf(i8*, ...) #2

declare dso_local i32 @printf(i8*, ...) #2


!llvm.module.flags = !{!0}
!llvm.ident = !{!1}

!0 = !{i32 1, !"wchar_size", i32 4}
!1 = !{!"clang version 10.0.0-4ubuntu1 "}
